; Function Attrs: mustprogress uwtable
define internal void @_ZN7rocksdb12_GLOBAL__N_119CountedWritableFile6AppendERKNS_5SliceERKNS_9IOOptionsEPNS_14IODebugContextE(ptr dead_on_unwind noalias writable sret(%"class.rocksdb::IOStatus") align 8 %0, ptr noundef nonnull readonly align 8 captures(none) dereferenceable(64) %1, ptr noundef nonnull align 8 dereferenceable(16) %2, ptr noundef nonnull align 8 dereferenceable(84) %3, ptr noundef %4) unnamed_addr #0 align 2 personality ptr @__gxx_personality_v0 {
  %6 = getelementptr inbounds nuw i8, ptr %1, i64 40
  %7 = load ptr, ptr %6, align 8, !tbaa !113
  %8 = load ptr, ptr %7, align 8, !tbaa !4
  %9 = getelementptr inbounds nuw i8, ptr %8, i64 16
  %10 = load ptr, ptr %9, align 8
  tail call void %10(ptr dead_on_unwind writable sret(%"class.rocksdb::IOStatus") align 8 %0, ptr noundef nonnull align 8 dereferenceable(33) %7, ptr noundef nonnull align 8 dereferenceable(16) %2, ptr noundef nonnull align 8 dereferenceable(84) %3, ptr noundef %4)
  %11 = getelementptr inbounds nuw i8, ptr %1, i64 56
  %12 = load ptr, ptr %11, align 8, !tbaa !116
  %13 = getelementptr inbounds nuw i8, ptr %2, i64 8
  %14 = load i64, ptr %13, align 8, !tbaa !168
  %15 = load i8, ptr %0, align 8, !tbaa !64
  %16 = icmp eq i8 %15, 3
  br i1 %16, label %_ZN7rocksdb9OpCounter8RecordOpERKNS_8IOStatusEm.exit, label %17

17:                                               ; preds = %5
  %18 = getelementptr inbounds nuw i8, ptr %12, i64 104
  %19 = atomicrmw add ptr %18, i32 1 monotonic, align 4
  %.pr.i = load i8, ptr %0, align 8, !tbaa !64
  %20 = icmp eq i8 %.pr.i, 0
  br i1 %20, label %21, label %_ZN7rocksdb9OpCounter8RecordOpERKNS_8IOStatusEm.exit

21:                                               ; preds = %17
  %22 = getelementptr inbounds nuw i8, ptr %12, i64 112
  %23 = atomicrmw add ptr %22, i64 %14 monotonic, align 8
  br label %_ZN7rocksdb9OpCounter8RecordOpERKNS_8IOStatusEm.exit

_ZN7rocksdb9OpCounter8RecordOpERKNS_8IOStatusEm.exit: ; preds = %21, %17, %5
  ret void
}